; Function Attrs: nounwind uwtable
define internal void @tkgen_polyline(ptr noundef %0, ptr noundef %1, i64 noundef %2) #0 {
  %4 = getelementptr inbounds nuw i8, ptr %0, i64 32
  %5 = load ptr, ptr %4, align 8, !tbaa !34
  %6 = getelementptr inbounds nuw i8, ptr %5, i64 168
  %7 = load i32, ptr %6, align 8, !tbaa !39
  %.not = icmp eq i32 %7, 0
  br i1 %.not, label %57, label %8

8:                                                ; preds = %3
  %9 = getelementptr inbounds nuw i8, ptr %0, i64 264
  %10 = load i8, ptr %9, align 8, !tbaa !50, !range !51, !noundef !52
  %11 = trunc nuw i8 %10 to i1
  br i1 %11, label %12, label %tkgen_canvas.exit

12:                                               ; preds = %8
  %13 = getelementptr inbounds nuw i8, ptr %0, i64 256
  %14 = load ptr, ptr %13, align 8, !tbaa !53
  %15 = load ptr, ptr %14, align 8, !tbaa !54
  br label %tkgen_canvas.exit

tkgen_canvas.exit:                                ; preds = %8, %12
  %.str.14.sink.i = phi ptr [ %15, %12 ], [ @.str.14, %8 ]
  %16 = tail call i32 @gvputs(ptr noundef nonnull %0, ptr noundef %.str.14.sink.i) #6
  %17 = tail call i32 @gvputs(ptr noundef nonnull %0, ptr noundef nonnull @.str.32) #6
  tail call void @gvprintpointflist(ptr noundef nonnull %0, ptr noundef %1, i64 noundef %2) #6
  %18 = tail call i32 @gvputs(ptr noundef nonnull %0, ptr noundef nonnull @.str.25) #6
  %19 = getelementptr inbounds nuw i8, ptr %5, i64 32
  %.sroa.0.0.copyload = load ptr, ptr %19, align 1
  %.sroa.816.0..sroa_idx = getelementptr inbounds nuw i8, ptr %5, i64 64
  %.sroa.816.0.copyload = load i32, ptr %.sroa.816.0..sroa_idx, align 1
  switch i32 %.sroa.816.0.copyload, label %34 [
    i32 4, label %20
    i32 1, label %22
  ]

20:                                               ; preds = %tkgen_canvas.exit
  %21 = tail call i32 @gvputs(ptr noundef nonnull %0, ptr noundef %.sroa.0.0.copyload) #6
  br label %tkgen_print_color.exit

22:                                               ; preds = %tkgen_canvas.exit
  %23 = ptrtoint ptr %.sroa.0.0.copyload to i64
  %24 = and i64 %23, 4278190080
  %25 = icmp eq i64 %24, 0
  br i1 %25, label %26, label %28

26:                                               ; preds = %22
  %27 = tail call i32 @gvputs(ptr noundef nonnull %0, ptr noundef nonnull @.str.15) #6
  br label %tkgen_print_color.exit

28:                                               ; preds = %22
  %.sroa.0.0.extract.trunc = trunc i64 %23 to i32
  %29 = and i32 %.sroa.0.0.extract.trunc, 255
  %30 = lshr i32 %.sroa.0.0.extract.trunc, 8
  %31 = and i32 %30, 255
  %32 = lshr i32 %.sroa.0.0.extract.trunc, 16
  %33 = and i32 %32, 255
  tail call void (ptr, ptr, ...) @gvprintf(ptr noundef nonnull %0, ptr noundef nonnull @.str.16, i32 noundef %29, i32 noundef %31, i32 noundef %33) #6
  br label %tkgen_print_color.exit

34:                                               ; preds = %tkgen_canvas.exit
  %35 = load ptr, ptr @stderr, align 8, !tbaa !58
  %36 = tail call i32 (ptr, ptr, ...) @fprintf(ptr noundef %35, ptr noundef nonnull @.str.17, ptr noundef nonnull @.str.18, i32 noundef 43) #7
  tail call void @abort() #8
  unreachable

tkgen_print_color.exit:                           ; preds = %20, %26, %28
  %37 = load i32, ptr %6, align 8, !tbaa !39
  %38 = icmp eq i32 %37, 1
  br i1 %38, label %39, label %41

39:                                               ; preds = %tkgen_print_color.exit
  %40 = tail call i32 @gvputs(ptr noundef nonnull %0, ptr noundef nonnull @.str.29) #6
  %.pr = load i32, ptr %6, align 8, !tbaa !39
  br label %41

41:                                               ; preds = %39, %tkgen_print_color.exit
  %42 = phi i32 [ %.pr, %39 ], [ %37, %tkgen_print_color.exit ]
  %43 = icmp eq i32 %42, 2
  br i1 %43, label %44, label %46

44:                                               ; preds = %41
  %45 = tail call i32 @gvputs(ptr noundef nonnull %0, ptr noundef nonnull @.str.30) #6
  br label %46

46:                                               ; preds = %44, %41
  %47 = load ptr, ptr %4, align 8, !tbaa !34
  %48 = getelementptr inbounds nuw i8, ptr %47, i64 24
  %49 = load i32, ptr %48, align 8, !tbaa !61
  %50 = icmp ult i32 %49, 12
  br i1 %50, label %switch.lookup, label %51

51:                                               ; preds = %46
  %52 = load ptr, ptr @stderr, align 8, !tbaa !58
  %53 = tail call i32 (ptr, ptr, ...) @fprintf(ptr noundef %52, ptr noundef nonnull @.str.17, ptr noundef nonnull @.str.18, i32 noundef 100) #7
  tail call void @abort() #8
  unreachable

switch.lookup:                                    ; preds = %46
  %54 = zext nneg i32 %49 to i64
  %switch.gep = getelementptr inbounds nuw [12 x ptr], ptr @switch.table.tkgen_polyline, i64 0, i64 %54
  %switch.load = load ptr, ptr %switch.gep, align 8
  %55 = zext nneg i32 %49 to i64
  %switch.gep17 = getelementptr inbounds nuw [12 x i32], ptr @switch.table.tkgen_polyline.5, i64 0, i64 %55
  %switch.load18 = load i32, ptr %switch.gep17, align 4
  %.014.in.i = getelementptr inbounds nuw i8, ptr %47, i64 16
  %.014.i = load ptr, ptr %.014.in.i, align 8, !tbaa !35
  tail call void (ptr, ptr, ...) @gvprintf(ptr noundef nonnull %0, ptr noundef nonnull @.str.23, i32 noundef %switch.load18, ptr noundef nonnull %switch.load, ptr noundef %.014.i) #6
  %56 = tail call i32 @gvputs(ptr noundef nonnull %0, ptr noundef nonnull @.str.13) #6
  br label %57

57:                                               ; preds = %switch.lookup, %3
  ret void
}